target datalayout = "e-m:e-p270:32:32-p271:32:32-p272:64:64-i64:64-i128:128-f80:128-n8:16:32:64-S128"
target triple = "x86_64-pc-linux-gnu"

%struct.WaitEvent = type { i32, i32, i32, ptr }

@FeBeWaitSet = dso_local global ptr null, align 8
@MyLatch = external global ptr, align 8

; Function Attrs: nounwind uwtable
define dso_local zeroext i1 @pq_check_connection() #0 {
  %1 = alloca i1, align 1
  %2 = alloca [3 x %struct.WaitEvent], align 16
  %3 = alloca i32, align 4
  %4 = alloca i32, align 4
  %5 = alloca i32, align 4
  call void @llvm.lifetime.start.p0(i64 72, ptr %2) #14
  call void @llvm.lifetime.start.p0(i64 4, ptr %3) #14
  %6 = load ptr, ptr @FeBeWaitSet, align 8
  call void @ModifyWaitEvent(ptr noundef %6, i32 noundef 0, i32 noundef 128, ptr noundef null)
  br label %7

7:                                                ; preds = %39, %0
  %8 = load ptr, ptr @FeBeWaitSet, align 8
  %9 = getelementptr inbounds [3 x %struct.WaitEvent], ptr %2, i64 0, i64 0
  %10 = call i32 @WaitEventSetWait(ptr noundef %8, i64 noundef 0, ptr noundef %9, i32 noundef 3, i32 noundef 0)
  store i32 %10, ptr %3, align 4
  call void @llvm.lifetime.start.p0(i64 4, ptr %4) #14
  store i32 0, ptr %4, align 4
  br label %11

11:                                               ; preds = %36, %7
  %12 = load i32, ptr %4, align 4
  %13 = load i32, ptr %3, align 4
  %14 = icmp slt i32 %12, %13
  br i1 %14, label %16, label %15

15:                                               ; preds = %11
  store i32 3, ptr %5, align 4
  br label %39

16:                                               ; preds = %11
  %17 = load i32, ptr %4, align 4
  %18 = sext i32 %17 to i64
  %19 = getelementptr inbounds [3 x %struct.WaitEvent], ptr %2, i64 0, i64 %18
  %20 = getelementptr inbounds nuw %struct.WaitEvent, ptr %19, i32 0, i32 1
  %21 = load i32, ptr %20, align 4
  %22 = and i32 %21, 128
  %23 = icmp ne i32 %22, 0
  br i1 %23, label %24, label %25

24:                                               ; preds = %16
  store i1 false, ptr %1, align 1
  store i32 1, ptr %5, align 4
  br label %39

25:                                               ; preds = %16
  %26 = load i32, ptr %4, align 4
  %27 = sext i32 %26 to i64
  %28 = getelementptr inbounds [3 x %struct.WaitEvent], ptr %2, i64 0, i64 %27
  %29 = getelementptr inbounds nuw %struct.WaitEvent, ptr %28, i32 0, i32 1
  %30 = load i32, ptr %29, align 4
  %31 = and i32 %30, 1
  %32 = icmp ne i32 %31, 0
  br i1 %32, label %33, label %35

33:                                               ; preds = %25
  %34 = load ptr, ptr @MyLatch, align 8
  call void @ResetLatch(ptr noundef %34)
  store i32 2, ptr %5, align 4
  br label %39

35:                                               ; preds = %25
  br label %36

36:                                               ; preds = %35
  %37 = load i32, ptr %4, align 4
  %38 = add i32 %37, 1
  store i32 %38, ptr %4, align 4
  br label %11, !llvm.loop !18

39:                                               ; preds = %33, %24, %15
  call void @llvm.lifetime.end.p0(i64 4, ptr %4) #14
  %40 = load i32, ptr %5, align 4
  switch i32 %40, label %42 [
    i32 3, label %41
    i32 2, label %7
  ]

41:                                               ; preds = %39
  store i1 true, ptr %1, align 1
  store i32 1, ptr %5, align 4
  br label %42

42:                                               ; preds = %41, %39
  call void @llvm.lifetime.end.p0(i64 4, ptr %3) #14
  call void @llvm.lifetime.end.p0(i64 72, ptr %2) #14
  %43 = load i1, ptr %1, align 1
  ret i1 %43
}