; Function Attrs: nounwind uwtable
define dso_local noundef zeroext i1 @pq_check_connection() local_unnamed_addr #0 {
  %1 = alloca [3 x %struct.WaitEvent], align 16
  call void @llvm.lifetime.start.p0(i64 72, ptr nonnull %1) #21
  %2 = load ptr, ptr @FeBeWaitSet, align 8
  tail call void @ModifyWaitEvent(ptr noundef %2, i32 noundef 0, i32 noundef 128, ptr noundef null) #21
  %3 = load ptr, ptr @FeBeWaitSet, align 8
  %4 = call i32 @WaitEventSetWait(ptr noundef %3, i64 noundef 0, ptr noundef nonnull %1, i32 noundef 3, i32 noundef 0) #21
  %5 = icmp slt i32 %4, 1
  br i1 %5, label %.thread, label %.lr.ph

.lr.ph:                                           ; preds = %0, %14
  %6 = phi i32 [ %17, %14 ], [ %4, %0 ]
  %wide.trip.count = zext nneg i32 %6 to i64
  br label %8

7:                                                ; preds = %12
  %indvars.iv.next = add nuw nsw i64 %indvars.iv, 1
  %exitcond.not = icmp eq i64 %indvars.iv.next, %wide.trip.count
  br i1 %exitcond.not, label %.thread, label %8, !llvm.loop !13

8:                                                ; preds = %.lr.ph, %7
  %indvars.iv = phi i64 [ 0, %.lr.ph ], [ %indvars.iv.next, %7 ]
  %9 = getelementptr inbounds nuw [3 x %struct.WaitEvent], ptr %1, i64 0, i64 %indvars.iv, i32 1
  %10 = load i32, ptr %9, align 4
  %11 = and i32 %10, 128
  %.not = icmp eq i32 %11, 0
  br i1 %.not, label %12, label %.thread

12:                                               ; preds = %8
  %13 = and i32 %10, 1
  %.not8 = icmp eq i32 %13, 0
  br i1 %.not8, label %7, label %14

14:                                               ; preds = %12
  %15 = load ptr, ptr @MyLatch, align 8
  call void @ResetLatch(ptr noundef %15) #21
  %16 = load ptr, ptr @FeBeWaitSet, align 8
  %17 = call i32 @WaitEventSetWait(ptr noundef %16, i64 noundef 0, ptr noundef nonnull %1, i32 noundef 3, i32 noundef 0) #21
  %18 = icmp slt i32 %17, 1
  br i1 %18, label %.thread, label %.lr.ph

.thread:                                          ; preds = %14, %7, %8, %0
  %.lcssa = phi i1 [ true, %0 ], [ %.not, %8 ], [ %.not, %7 ], [ true, %14 ]
  call void @llvm.lifetime.end.p0(i64 72, ptr nonnull %1) #21
  ret i1 %.lcssa
}